target datalayout = "e-m:e-p270:32:32-p271:32:32-p272:64:64-i64:64-i128:128-f80:128-n8:16:32:64-S128"
target triple = "x86_64-pc-linux-gnu"

@.str.10 = private unnamed_addr constant [42 x i8] c"/sys/devices/platform/aem.0/energy1_input\00", align 1
@.str.11 = private unnamed_addr constant [43 x i8] c"/sys/devices/platform/aem.0/power1_average\00", align 1
@.str.12 = private unnamed_addr constant [16 x i8] c"unknown type %d\00", align 1
@.str.13 = private unnamed_addr constant [2 x i8] c"r\00", align 1
@.str.14 = private unnamed_addr constant [37 x i8] c"_get_latest_stats: unable to open %s\00", align 1
@.str.15 = private unnamed_addr constant [14 x i8] c"%s: fcntl: %m\00", align 1
@__func__._get_latest_stats = private unnamed_addr constant [18 x i8] c"_get_latest_stats\00", align 1
@.str.16 = private unnamed_addr constant [4 x i8] c"%lu\00", align 1

; Function Attrs: nounwind uwtable
define internal i64 @_get_latest_stats(i32 noundef %0) #0 {
  %2 = alloca i64, align 8
  %3 = alloca i32, align 4
  %4 = alloca i64, align 8
  %5 = alloca i32, align 4
  %6 = alloca ptr, align 8
  %7 = alloca ptr, align 8
  %8 = alloca [64 x i8], align 16
  %9 = alloca i32, align 4
  %10 = alloca i32, align 4
  store i32 %0, ptr %3, align 4
  call void @llvm.lifetime.start.p0(i64 8, ptr %4) #5
  store i64 0, ptr %4, align 8
  call void @llvm.lifetime.start.p0(i64 4, ptr %5) #5
  call void @llvm.lifetime.start.p0(i64 8, ptr %6) #5
  store ptr null, ptr %6, align 8
  call void @llvm.lifetime.start.p0(i64 8, ptr %7) #5
  call void @llvm.lifetime.start.p0(i64 64, ptr %8) #5
  call void @llvm.lifetime.start.p0(i64 4, ptr %9) #5
  %11 = load i32, ptr %3, align 4
  switch i32 %11, label %14 [
    i32 0, label %12
    i32 1, label %13
  ]

12:                                               ; preds = %1
  store ptr @.str.10, ptr %7, align 8
  br label %17

13:                                               ; preds = %1
  store ptr @.str.11, ptr %7, align 8
  br label %17

14:                                               ; preds = %1
  %15 = load i32, ptr %3, align 4
  %16 = call i32 (ptr, ...) @slurm_error(ptr noundef @.str.12, i32 noundef %15)
  store i64 0, ptr %2, align 8
  store i32 1, ptr %10, align 4
  br label %50

17:                                               ; preds = %13, %12
  %18 = load ptr, ptr %7, align 8
  %19 = call noalias ptr @fopen(ptr noundef %18, ptr noundef @.str.13)
  store ptr %19, ptr %6, align 8
  %20 = icmp ne ptr %19, null
  br i1 %20, label %25, label %21

21:                                               ; preds = %17
  %22 = load ptr, ptr %7, align 8
  %23 = call i32 (ptr, ...) @slurm_error(ptr noundef @.str.14, ptr noundef %22)
  %24 = load i64, ptr %4, align 8
  store i64 %24, ptr %2, align 8
  store i32 1, ptr %10, align 4
  br label %50

25:                                               ; preds = %17
  %26 = load ptr, ptr %6, align 8
  %27 = call i32 @fileno(ptr noundef %26) #5
  store i32 %27, ptr %5, align 4
  %28 = load i32, ptr %5, align 4
  %29 = call i32 (i32, i32, ...) @fcntl(i32 noundef %28, i32 noundef 2, i32 noundef 1)
  %30 = icmp eq i32 %29, -1
  br i1 %30, label %31, label %33

31:                                               ; preds = %25
  %32 = call i32 (ptr, ...) @slurm_error(ptr noundef @.str.15, ptr noundef @__func__._get_latest_stats)
  br label %33

33:                                               ; preds = %31, %25
  %34 = load i32, ptr %5, align 4
  %35 = getelementptr inbounds [64 x i8], ptr %8, i64 0, i64 0
  %36 = call i64 @read(i32 noundef %34, ptr noundef %35, i64 noundef 63)
  %37 = trunc i64 %36 to i32
  store i32 %37, ptr %9, align 4
  %38 = load i32, ptr %9, align 4
  %39 = icmp sgt i32 %38, 0
  br i1 %39, label %40, label %46

40:                                               ; preds = %33
  %41 = load i32, ptr %9, align 4
  %42 = sext i32 %41 to i64
  %43 = getelementptr inbounds [64 x i8], ptr %8, i64 0, i64 %42
  store i8 0, ptr %43, align 1
  %44 = getelementptr inbounds [64 x i8], ptr %8, i64 0, i64 0
  %45 = call i32 (ptr, ptr, ...) @__isoc99_sscanf(ptr noundef %44, ptr noundef @.str.16, ptr noundef %4) #5
  br label %46

46:                                               ; preds = %40, %33
  %47 = load ptr, ptr %6, align 8
  %48 = call i32 @fclose(ptr noundef %47)
  %49 = load i64, ptr %4, align 8
  store i64 %49, ptr %2, align 8
  store i32 1, ptr %10, align 4
  br label %50

50:                                               ; preds = %46, %21, %14
  call void @llvm.lifetime.end.p0(i64 4, ptr %9) #5
  call void @llvm.lifetime.end.p0(i64 64, ptr %8) #5
  call void @llvm.lifetime.end.p0(i64 8, ptr %7) #5
  call void @llvm.lifetime.end.p0(i64 8, ptr %6) #5
  call void @llvm.lifetime.end.p0(i64 4, ptr %5) #5
  call void @llvm.lifetime.end.p0(i64 8, ptr %4) #5
  %51 = load i64, ptr %2, align 8
  ret i64 %51
}